target datalayout = "e-m:e-p270:32:32-p271:32:32-p272:64:64-i64:64-i128:128-f80:128-n8:16:32:64-S128"
target triple = "x86_64-pc-linux-gnu"

%"class.google::protobuf::io::CodedInputStream" = type { ptr, ptr, ptr, i32, i32, i32, i8, i8, i32, i32, i32, i32, i32, ptr, ptr }

; Function Attrs: inlinehint mustprogress nounwind uwtable
define linkonce_odr noundef nonnull align 4 dereferenceable(4) ptr @_ZSt3minIiERKT_S2_S2_(ptr noundef nonnull align 4 dereferenceable(4) %0, ptr noundef nonnull align 4 dereferenceable(4) %1) #8 comdat {
  %3 = alloca ptr, align 8
  %4 = alloca ptr, align 8
  %5 = alloca ptr, align 8
  store ptr %0, ptr %4, align 8, !tbaa !27
  store ptr %1, ptr %5, align 8, !tbaa !27
  %6 = load ptr, ptr %5, align 8, !tbaa !27
  %7 = load i32, ptr %6, align 4, !tbaa !18
  %8 = load ptr, ptr %4, align 8, !tbaa !27
  %9 = load i32, ptr %8, align 4, !tbaa !18
  %10 = icmp slt i32 %7, %9
  br i1 %10, label %11, label %13

11:                                               ; preds = %2
  %12 = load ptr, ptr %5, align 8, !tbaa !27
  store ptr %12, ptr %3, align 8
  br label %15

13:                                               ; preds = %2
  %14 = load ptr, ptr %4, align 8, !tbaa !27
  store ptr %14, ptr %3, align 8
  br label %15

15:                                               ; preds = %13, %11
  %16 = load ptr, ptr %3, align 8
  ret ptr %16
}

; Function Attrs: inlinehint mustprogress nounwind uwtable
define linkonce_odr hidden void @_ZN6google8protobuf2io16CodedInputStream7AdvanceEi(ptr noundef nonnull align 8 dereferenceable(80) %0, i32 noundef %1) #8 comdat align 2 {
  %3 = alloca ptr, align 8
  %4 = alloca i32, align 4
  store ptr %0, ptr %3, align 8, !tbaa !3
  store i32 %1, ptr %4, align 4, !tbaa !18
  %5 = load ptr, ptr %3, align 8
  %6 = load i32, ptr %4, align 4, !tbaa !18
  %7 = getelementptr inbounds nuw %"class.google::protobuf::io::CodedInputStream", ptr %5, i32 0, i32 0
  %8 = load ptr, ptr %7, align 8, !tbaa !22
  %9 = sext i32 %6 to i64
  %10 = getelementptr inbounds i8, ptr %8, i64 %9
  store ptr %10, ptr %7, align 8, !tbaa !22
  ret void
}

; Function Attrs: mustprogress uwtable
define hidden noundef zeroext i1 @_ZN6google8protobuf2io16CodedInputStream12SkipFallbackEii(ptr noundef nonnull align 8 dereferenceable(80) %0, i32 noundef %1, i32 noundef %2) #5 align 2 {
  %4 = alloca i1, align 1
  %5 = alloca ptr, align 8
  %6 = alloca i32, align 4
  %7 = alloca i32, align 4
  %8 = alloca i32, align 4
  %9 = alloca i32, align 4
  %10 = alloca i32, align 4
  store ptr %0, ptr %5, align 8, !tbaa !3
  store i32 %1, ptr %6, align 4, !tbaa !18
  store i32 %2, ptr %7, align 4, !tbaa !18
  %11 = load ptr, ptr %5, align 8
  %12 = getelementptr inbounds nuw %"class.google::protobuf::io::CodedInputStream", ptr %11, i32 0, i32 9
  %13 = load i32, ptr %12, align 4, !tbaa !16
  %14 = icmp sgt i32 %13, 0
  br i1 %14, label %15, label %17

15:                                               ; preds = %3
  %16 = load i32, ptr %7, align 4, !tbaa !18
  call void @_ZN6google8protobuf2io16CodedInputStream7AdvanceEi(ptr noundef nonnull align 8 dereferenceable(80) %11, i32 noundef %16)
  store i1 false, ptr %4, align 1
  br label %73

17:                                               ; preds = %3
  %18 = load i32, ptr %7, align 4, !tbaa !18
  %19 = load i32, ptr %6, align 4, !tbaa !18
  %20 = sub nsw i32 %19, %18
  store i32 %20, ptr %6, align 4, !tbaa !18
  %21 = getelementptr inbounds nuw %"class.google::protobuf::io::CodedInputStream", ptr %11, i32 0, i32 0
  store ptr null, ptr %21, align 8, !tbaa !22
  %22 = getelementptr inbounds nuw %"class.google::protobuf::io::CodedInputStream", ptr %11, i32 0, i32 0
  %23 = load ptr, ptr %22, align 8, !tbaa !22
  %24 = getelementptr inbounds nuw %"class.google::protobuf::io::CodedInputStream", ptr %11, i32 0, i32 1
  store ptr %23, ptr %24, align 8, !tbaa !23
  call void @llvm.lifetime.start.p0(i64 4, ptr %8) #3
  %25 = getelementptr inbounds nuw %"class.google::protobuf::io::CodedInputStream", ptr %11, i32 0, i32 8
  %26 = getelementptr inbounds nuw %"class.google::protobuf::io::CodedInputStream", ptr %11, i32 0, i32 10
  %27 = call noundef nonnull align 4 dereferenceable(4) ptr @_ZSt3minIiERKT_S2_S2_(ptr noundef nonnull align 4 dereferenceable(4) %25, ptr noundef nonnull align 4 dereferenceable(4) %26)
  %28 = load i32, ptr %27, align 4, !tbaa !18
  store i32 %28, ptr %8, align 4, !tbaa !18
  call void @llvm.lifetime.start.p0(i64 4, ptr %9) #3
  %29 = load i32, ptr %8, align 4, !tbaa !18
  %30 = getelementptr inbounds nuw %"class.google::protobuf::io::CodedInputStream", ptr %11, i32 0, i32 3
  %31 = load i32, ptr %30, align 8, !tbaa !21
  %32 = sub nsw i32 %29, %31
  store i32 %32, ptr %9, align 4, !tbaa !18
  %33 = load i32, ptr %9, align 4, !tbaa !18
  %34 = load i32, ptr %6, align 4, !tbaa !18
  %35 = icmp slt i32 %33, %34
  br i1 %35, label %36, label %50

36:                                               ; preds = %17
  %37 = load i32, ptr %9, align 4, !tbaa !18
  %38 = icmp sgt i32 %37, 0
  br i1 %38, label %39, label %49

39:                                               ; preds = %36
  %40 = load i32, ptr %8, align 4, !tbaa !18
  %41 = getelementptr inbounds nuw %"class.google::protobuf::io::CodedInputStream", ptr %11, i32 0, i32 3
  store i32 %40, ptr %41, align 8, !tbaa !21
  %42 = getelementptr inbounds nuw %"class.google::protobuf::io::CodedInputStream", ptr %11, i32 0, i32 2
  %43 = load ptr, ptr %42, align 8, !tbaa !8
  %44 = load i32, ptr %9, align 4, !tbaa !18
  %45 = load ptr, ptr %43, align 8, !tbaa !19
  %46 = getelementptr inbounds ptr, ptr %45, i64 4
  %47 = load ptr, ptr %46, align 8
  %48 = call noundef zeroext i1 %47(ptr noundef nonnull align 8 dereferenceable(8) %43, i32 noundef %44)
  br label %49

49:                                               ; preds = %39, %36
  store i1 false, ptr %4, align 1
  store i32 1, ptr %10, align 4
  br label %72

50:                                               ; preds = %17
  %51 = getelementptr inbounds nuw %"class.google::protobuf::io::CodedInputStream", ptr %11, i32 0, i32 2
  %52 = load ptr, ptr %51, align 8, !tbaa !8
  %53 = load i32, ptr %6, align 4, !tbaa !18
  %54 = load ptr, ptr %52, align 8, !tbaa !19
  %55 = getelementptr inbounds ptr, ptr %54, i64 4
  %56 = load ptr, ptr %55, align 8
  %57 = call noundef zeroext i1 %56(ptr noundef nonnull align 8 dereferenceable(8) %52, i32 noundef %53)
  br i1 %57, label %67, label %58

58:                                               ; preds = %50
  %59 = getelementptr inbounds nuw %"class.google::protobuf::io::CodedInputStream", ptr %11, i32 0, i32 2
  %60 = load ptr, ptr %59, align 8, !tbaa !8
  %61 = load ptr, ptr %60, align 8, !tbaa !19
  %62 = getelementptr inbounds ptr, ptr %61, i64 5
  %63 = load ptr, ptr %62, align 8
  %64 = call noundef i64 %63(ptr noundef nonnull align 8 dereferenceable(8) %60)
  %65 = trunc i64 %64 to i32
  %66 = getelementptr inbounds nuw %"class.google::protobuf::io::CodedInputStream", ptr %11, i32 0, i32 3
  store i32 %65, ptr %66, align 8, !tbaa !21
  store i1 false, ptr %4, align 1
  store i32 1, ptr %10, align 4
  br label %72

67:                                               ; preds = %50
  %68 = load i32, ptr %6, align 4, !tbaa !18
  %69 = getelementptr inbounds nuw %"class.google::protobuf::io::CodedInputStream", ptr %11, i32 0, i32 3
  %70 = load i32, ptr %69, align 8, !tbaa !21
  %71 = add nsw i32 %70, %68
  store i32 %71, ptr %69, align 8, !tbaa !21
  store i1 true, ptr %4, align 1
  store i32 1, ptr %10, align 4
  br label %72

72:                                               ; preds = %67, %58, %49
  call void @llvm.lifetime.end.p0(i64 4, ptr %9) #3
  call void @llvm.lifetime.end.p0(i64 4, ptr %8) #3
  br label %73

73:                                               ; preds = %72, %15
  %74 = load i1, ptr %4, align 1
  ret i1 %74
}