; Function Attrs: mustprogress uwtable
define hidden noundef zeroext i1 @_ZN6google8protobuf2io16CodedInputStream12SkipFallbackEii(ptr noundef nonnull align 8 captures(none) dereferenceable(80) %0, i32 noundef %1, i32 noundef %2) local_unnamed_addr #4 align 2 {
  %4 = getelementptr inbounds nuw i8, ptr %0, i64 44
  %5 = load i32, ptr %4, align 4, !tbaa !16
  %6 = icmp sgt i32 %5, 0
  br i1 %6, label %7, label %11

7:                                                ; preds = %3
  %8 = load ptr, ptr %0, align 8, !tbaa !15
  %9 = sext i32 %2 to i64
  %10 = getelementptr inbounds i8, ptr %8, i64 %9
  store ptr %10, ptr %0, align 8, !tbaa !15
  br label %48

11:                                               ; preds = %3
  %12 = sub nsw i32 %1, %2
  %13 = getelementptr inbounds nuw i8, ptr %0, i64 40
  %14 = getelementptr inbounds nuw i8, ptr %0, i64 48
  tail call void @llvm.memset.p0.i64(ptr noundef nonnull align 8 dereferenceable(16) %0, i8 0, i64 16, i1 false)
  %15 = load i32, ptr %14, align 8, !tbaa !23
  %16 = load i32, ptr %13, align 8, !tbaa !23
  %17 = tail call i32 @llvm.smin.i32(i32 %15, i32 %16)
  %18 = getelementptr inbounds nuw i8, ptr %0, i64 24
  %19 = load i32, ptr %18, align 8, !tbaa !20
  %20 = sub nsw i32 %17, %19
  %21 = icmp slt i32 %20, %12
  br i1 %21, label %22, label %31

22:                                               ; preds = %11
  %23 = icmp sgt i32 %20, 0
  br i1 %23, label %24, label %48

24:                                               ; preds = %22
  store i32 %17, ptr %18, align 8, !tbaa !20
  %25 = getelementptr inbounds nuw i8, ptr %0, i64 16
  %26 = load ptr, ptr %25, align 8, !tbaa !3
  %27 = load ptr, ptr %26, align 8, !tbaa !18
  %28 = getelementptr inbounds nuw i8, ptr %27, i64 32
  %29 = load ptr, ptr %28, align 8
  %30 = tail call noundef zeroext i1 %29(ptr noundef nonnull align 8 dereferenceable(8) %26, i32 noundef %20)
  br label %48

31:                                               ; preds = %11
  %32 = getelementptr inbounds nuw i8, ptr %0, i64 16
  %33 = load ptr, ptr %32, align 8, !tbaa !3
  %34 = load ptr, ptr %33, align 8, !tbaa !18
  %35 = getelementptr inbounds nuw i8, ptr %34, i64 32
  %36 = load ptr, ptr %35, align 8
  %37 = tail call noundef zeroext i1 %36(ptr noundef nonnull align 8 dereferenceable(8) %33, i32 noundef %12)
  br i1 %37, label %45, label %38

38:                                               ; preds = %31
  %39 = load ptr, ptr %32, align 8, !tbaa !3
  %40 = load ptr, ptr %39, align 8, !tbaa !18
  %41 = getelementptr inbounds nuw i8, ptr %40, i64 40
  %42 = load ptr, ptr %41, align 8
  %43 = tail call noundef i64 %42(ptr noundef nonnull align 8 dereferenceable(8) %39)
  %44 = trunc i64 %43 to i32
  store i32 %44, ptr %18, align 8, !tbaa !20
  br label %48

45:                                               ; preds = %31
  %46 = load i32, ptr %18, align 8, !tbaa !20
  %47 = add nsw i32 %46, %12
  store i32 %47, ptr %18, align 8, !tbaa !20
  br label %48

48:                                               ; preds = %38, %45, %24, %22, %7
  %.0 = phi i1 [ false, %7 ], [ true, %45 ], [ false, %38 ], [ false, %24 ], [ false, %22 ]
  ret i1 %.0
}